target datalayout = "e-m:e-p270:32:32-p271:32:32-p272:64:64-i64:64-i128:128-f80:128-n8:16:32:64-S128"
target triple = "x86_64-pc-linux-gnu"

; Function Attrs: mustprogress nounwind uwtable
define linkonce_odr noundef i32 @_Z6duRGBAiiii(i32 noundef %0, i32 noundef %1, i32 noundef %2, i32 noundef %3) #0 comdat {
  %5 = alloca i32, align 4
  %6 = alloca i32, align 4
  %7 = alloca i32, align 4
  %8 = alloca i32, align 4
  store i32 %0, ptr %5, align 4
  store i32 %1, ptr %6, align 4
  store i32 %2, ptr %7, align 4
  store i32 %3, ptr %8, align 4
  %9 = load i32, ptr %5, align 4
  %10 = load i32, ptr %6, align 4
  %11 = shl i32 %10, 8
  %12 = or i32 %9, %11
  %13 = load i32, ptr %7, align 4
  %14 = shl i32 %13, 16
  %15 = or i32 %12, %14
  %16 = load i32, ptr %8, align 4
  %17 = shl i32 %16, 24
  %18 = or i32 %15, %17
  ret i32 %18
}

; Function Attrs: mustprogress nounwind uwtable
define linkonce_odr noundef i32 @_Z9duMultColjj(i32 noundef %0, i32 noundef %1) #0 comdat {
  %3 = alloca i32, align 4
  %4 = alloca i32, align 4
  %5 = alloca i32, align 4
  %6 = alloca i32, align 4
  %7 = alloca i32, align 4
  %8 = alloca i32, align 4
  store i32 %0, ptr %3, align 4
  store i32 %1, ptr %4, align 4
  %9 = load i32, ptr %3, align 4
  %10 = and i32 %9, 255
  store i32 %10, ptr %5, align 4
  %11 = load i32, ptr %3, align 4
  %12 = lshr i32 %11, 8
  %13 = and i32 %12, 255
  store i32 %13, ptr %6, align 4
  %14 = load i32, ptr %3, align 4
  %15 = lshr i32 %14, 16
  %16 = and i32 %15, 255
  store i32 %16, ptr %7, align 4
  %17 = load i32, ptr %3, align 4
  %18 = lshr i32 %17, 24
  %19 = and i32 %18, 255
  store i32 %19, ptr %8, align 4
  %20 = load i32, ptr %5, align 4
  %21 = load i32, ptr %4, align 4
  %22 = mul i32 %20, %21
  %23 = lshr i32 %22, 8
  %24 = load i32, ptr %6, align 4
  %25 = load i32, ptr %4, align 4
  %26 = mul i32 %24, %25
  %27 = lshr i32 %26, 8
  %28 = load i32, ptr %7, align 4
  %29 = load i32, ptr %4, align 4
  %30 = mul i32 %28, %29
  %31 = lshr i32 %30, 8
  %32 = load i32, ptr %8, align 4
  %33 = call noundef i32 @_Z6duRGBAiiii(i32 noundef %23, i32 noundef %27, i32 noundef %31, i32 noundef %32)
  ret i32 %33
}

; Function Attrs: mustprogress uwtable
define void @_Z15duCalcBoxColorsPjjj(ptr noundef %0, i32 noundef %1, i32 noundef %2) #2 {
  %4 = alloca ptr, align 8
  %5 = alloca i32, align 4
  %6 = alloca i32, align 4
  store ptr %0, ptr %4, align 8
  store i32 %1, ptr %5, align 4
  store i32 %2, ptr %6, align 4
  %7 = load ptr, ptr %4, align 8
  %8 = icmp ne ptr %7, null
  br i1 %8, label %10, label %9

9:                                                ; preds = %3
  br label %35

10:                                               ; preds = %3
  %11 = load i32, ptr %5, align 4
  %12 = call noundef i32 @_Z9duMultColjj(i32 noundef %11, i32 noundef 250)
  %13 = load ptr, ptr %4, align 8
  %14 = getelementptr inbounds i32, ptr %13, i64 0
  store i32 %12, ptr %14, align 4
  %15 = load i32, ptr %6, align 4
  %16 = call noundef i32 @_Z9duMultColjj(i32 noundef %15, i32 noundef 140)
  %17 = load ptr, ptr %4, align 8
  %18 = getelementptr inbounds i32, ptr %17, i64 1
  store i32 %16, ptr %18, align 4
  %19 = load i32, ptr %6, align 4
  %20 = call noundef i32 @_Z9duMultColjj(i32 noundef %19, i32 noundef 165)
  %21 = load ptr, ptr %4, align 8
  %22 = getelementptr inbounds i32, ptr %21, i64 2
  store i32 %20, ptr %22, align 4
  %23 = load i32, ptr %6, align 4
  %24 = call noundef i32 @_Z9duMultColjj(i32 noundef %23, i32 noundef 217)
  %25 = load ptr, ptr %4, align 8
  %26 = getelementptr inbounds i32, ptr %25, i64 3
  store i32 %24, ptr %26, align 4
  %27 = load i32, ptr %6, align 4
  %28 = call noundef i32 @_Z9duMultColjj(i32 noundef %27, i32 noundef 165)
  %29 = load ptr, ptr %4, align 8
  %30 = getelementptr inbounds i32, ptr %29, i64 4
  store i32 %28, ptr %30, align 4
  %31 = load i32, ptr %6, align 4
  %32 = call noundef i32 @_Z9duMultColjj(i32 noundef %31, i32 noundef 217)
  %33 = load ptr, ptr %4, align 8
  %34 = getelementptr inbounds i32, ptr %33, i64 5
  store i32 %32, ptr %34, align 4
  br label %35

35:                                               ; preds = %10, %9
  ret void
}