; Function Attrs: mustprogress nofree norecurse nosync nounwind willreturn memory(argmem: write) uwtable
define void @_Z15duCalcBoxColorsPjjj(ptr noundef writeonly %0, i32 noundef %1, i32 noundef %2) local_unnamed_addr #3 {
  %.not = icmp eq ptr %0, null
  br i1 %.not, label %58, label %4

4:                                                ; preds = %3
  %5 = and i32 %1, 255
  %6 = lshr i32 %1, 8
  %7 = and i32 %6, 255
  %8 = lshr i32 %1, 16
  %9 = and i32 %8, 255
  %10 = and i32 %1, -16777216
  %11 = mul nuw nsw i32 %5, 250
  %12 = lshr i32 %11, 8
  %13 = mul nuw nsw i32 %7, 250
  %14 = and i32 %13, 65280
  %15 = mul nuw nsw i32 %9, 64000
  %16 = and i32 %15, 16711680
  %17 = or disjoint i32 %12, %10
  %18 = or disjoint i32 %17, %14
  %19 = or disjoint i32 %18, %16
  store i32 %19, ptr %0, align 4
  %20 = and i32 %2, 255
  %21 = lshr i32 %2, 8
  %22 = and i32 %21, 255
  %23 = lshr i32 %2, 16
  %24 = and i32 %23, 255
  %25 = and i32 %2, -16777216
  %26 = mul nuw nsw i32 %20, 140
  %27 = lshr i32 %26, 8
  %28 = mul nuw nsw i32 %22, 140
  %29 = and i32 %28, 65280
  %30 = mul nuw nsw i32 %24, 35840
  %31 = and i32 %30, 16711680
  %32 = or disjoint i32 %27, %29
  %33 = or disjoint i32 %32, %31
  %34 = or disjoint i32 %33, %25
  %35 = getelementptr inbounds i8, ptr %0, i64 4
  store i32 %34, ptr %35, align 4
  %36 = mul nuw nsw i32 %20, 165
  %37 = lshr i32 %36, 8
  %38 = mul nuw nsw i32 %22, 165
  %39 = and i32 %38, 65280
  %40 = mul nuw nsw i32 %24, 42240
  %41 = and i32 %40, 16711680
  %42 = or disjoint i32 %37, %39
  %43 = or disjoint i32 %42, %41
  %44 = or disjoint i32 %43, %25
  %45 = getelementptr inbounds i8, ptr %0, i64 8
  store i32 %44, ptr %45, align 4
  %46 = mul nuw nsw i32 %20, 217
  %47 = lshr i32 %46, 8
  %48 = mul nuw nsw i32 %22, 217
  %49 = and i32 %48, 65280
  %50 = mul nuw nsw i32 %24, 55552
  %51 = and i32 %50, 16711680
  %52 = or disjoint i32 %47, %49
  %53 = or disjoint i32 %52, %51
  %54 = or disjoint i32 %53, %25
  %55 = getelementptr inbounds i8, ptr %0, i64 12
  store i32 %54, ptr %55, align 4
  %56 = getelementptr inbounds i8, ptr %0, i64 16
  store i32 %44, ptr %56, align 4
  %57 = getelementptr inbounds i8, ptr %0, i64 20
  store i32 %54, ptr %57, align 4
  br label %58

58:                                               ; preds = %3, %4
  ret void
}